; Function Attrs: mustprogress nounwind uwtable
define hidden void @_ZN3mbp9mbp_dt_tgD0Ev(ptr noundef nonnull align 8 dereferenceable(16) %this) unnamed_addr #6 align 2 personality ptr @__gxx_personality_v0 {
entry:
  store ptr getelementptr inbounds ({ [8 x ptr] }, ptr @_ZTVN3mbp9mbp_dt_tgE, i64 0, i32 0, i64 2), ptr %this, align 8
  %m_impl.i = getelementptr inbounds i8, ptr %this, i64 8
  %0 = load ptr, ptr %m_impl.i, align 8
  %cmp.i.i = icmp eq ptr %0, null
  br i1 %cmp.i.i, label %_ZN3mbp9mbp_dt_tgD2Ev.exit, label %if.end.i.i

if.end.i.i:                                       ; preds = %entry
  tail call void @_ZN3mbp9mbp_dt_tg4implD2Ev(ptr noundef nonnull align 8 dereferenceable(361) %0) #15
  invoke void @_ZN6memory10deallocateEPv(ptr noundef nonnull %0)
          to label %_ZN3mbp9mbp_dt_tgD2Ev.exit unwind label %terminate.lpad.i

terminate.lpad.i:                                 ; preds = %if.end.i.i
  %1 = landingpad { ptr, i32 }
          catch ptr null
  %2 = extractvalue { ptr, i32 } %1, 0
  tail call void @__clang_call_terminate(ptr %2) #16
  unreachable

_ZN3mbp9mbp_dt_tgD2Ev.exit:                       ; preds = %entry, %if.end.i.i
  tail call void @_ZdlPv(ptr noundef nonnull %this) #17
  ret void
}